ccopy_reg
_reconstructor
p0
(cgoogle.oauth2.credentials
Credentials
p1
c__builtin__
object
p2
Ntp3
Rp4
(dp5
S'_quota_project_id'
p6
NsS'_token_uri'
p7
Vhttps://oauth2.googleapis.com/token
p8
sS'_client_secret'
p9
VqY7J4qdTLcOUKmQCfaQYVcCk
p10
sS'_id_token'
p11
NsS'token'
p12
Vya29.a0AfH6SMCt1RAPPli_zat-UQbVgG5tFjazXJBYZBjfmMrU_qrraxI-I2cSTCPw7fE2eCAML5H39eWbNEJNB_x3bAy8h6WkikdQ6UZUdWW5Xs6w8Oc5Ktc4Bp84_48DoAIlA34ybsHrAMrF04zaRPzfdwFNzS7XOadWMDyp
p13
sS'_refresh_token'
p14
V1//0fw-ixPH8UgwFCgYIARAAGA8SNwF-L9IroIHZD0LS_gn3ajX1VOpfxOvv4-EqBJGB4Bybqf9trMjpkdtPproKYJTqd1Kw0tbkDNo
p15
sS'_scopes'
p16
(lp17
S'https://www.googleapis.com/auth/classroom.courses.readonly'
p18
asS'_client_id'
p19
V550352458731-9ovalafb7c456fdgv1ek48r1vtveidm6.apps.googleusercontent.com
p20
sS'expiry'
p21
cdatetime
datetime
p22
(S'\x07\xe4\t\x0f\x168!\x0eM\x0c'
p23
tp24
Rp25
sb.