ccopy_reg
_reconstructor
p0
(cgoogle.oauth2.credentials
Credentials
p1
c__builtin__
object
p2
Ntp3
Rp4
(dp5
S'_quota_project_id'
p6
NsS'_token_uri'
p7
Vhttps://oauth2.googleapis.com/token
p8
sS'_client_secret'
p9
VqY7J4qdTLcOUKmQCfaQYVcCk
p10
sS'_id_token'
p11
NsS'token'
p12
Vya29.a0AfH6SMAY-v6L4h4SNpeNp_oq6I3K6gIkQPJufIti4TiuE88mPh4mnNnFa5tSSlSFTtWUF9_hZh-ZX7WlQL1VlYcEJcqP29fXrm-vhREVt_1lMGE8nTtpGoPq8wIHiPMsfhPez3n8DWWIquDH__91HWvW7PtbluVxhVKdWA
p13
sS'_refresh_token'
p14
V1//0fBWnPF8ARejqCgYIARAAGA8SNwF-L9IrS3CMgRAyo4fED6rKbcnWioZXVUqtbe1xDLwKfb-ZVGshZtc2Y14DUOOltQcM-EZ5w4c
p15
sS'_scopes'
p16
(lp17
S'https://www.googleapis.com/auth/documents'
p18
aS'https://www.googleapis.com/auth/classroom.student-submissions.me.readonly'
p19
asS'_client_id'
p20
V550352458731-9ovalafb7c456fdgv1ek48r1vtveidm6.apps.googleusercontent.com
p21
sS'expiry'
p22
cdatetime
datetime
p23
(S'\x07\xe4\n\x13\x0f\x1e\x01\x0e\xaa\x15'
p24
tp25
Rp26
sb.